; Function Attrs: null_pointer_is_valid sspstrong uwtable
define internal noundef zeroext i16 @de_nas_5gs_mm_nas_msg_cont(ptr noundef %0, ptr noundef %1, ptr noundef %2, i32 noundef %3, i32 noundef %4, ptr readnone captures(none) %5, i32 %6) #0 {
  %8 = getelementptr inbounds nuw i8, ptr %2, i64 408
  %9 = load ptr, ptr %8, align 8
  %10 = load i32, ptr @proto_nas_5gs, align 4
  %11 = getelementptr inbounds nuw i8, ptr %2, i64 376
  %12 = load i8, ptr %11, align 8
  %13 = zext i8 %12 to i32
  %14 = tail call ptr @p_get_proto_data(ptr noundef %9, ptr noundef %2, i32 noundef %10, i32 noundef %13)
  %.not.i = icmp eq ptr %14, null
  br i1 %.not.i, label %15, label %nas5gs_get_private_data.exit

15:                                               ; preds = %7
  %16 = load ptr, ptr %8, align 8
  %17 = tail call noalias dereferenceable_or_null(8) ptr @wmem_alloc0(ptr noundef %16, i64 noundef 8) #13
  %18 = load ptr, ptr %8, align 8
  %19 = load i32, ptr @proto_nas_5gs, align 4
  %20 = load i8, ptr %11, align 8
  %21 = zext i8 %20 to i32
  tail call void @p_add_proto_data(ptr noundef %18, ptr noundef %2, i32 noundef %19, i32 noundef %21, ptr noundef %17)
  br label %nas5gs_get_private_data.exit

nas5gs_get_private_data.exit:                     ; preds = %7, %15
  %.0.i = phi ptr [ %14, %7 ], [ %17, %15 ]
  %22 = load i8, ptr %.0.i, align 4
  %23 = icmp eq i8 %22, 0
  br i1 %23, label %27, label %24

24:                                               ; preds = %nas5gs_get_private_data.exit
  %25 = load i8, ptr @g_nas_5gs_null_decipher, align 1, !range !20, !noundef !21
  %26 = trunc nuw i8 %25 to i1
  br i1 %26, label %27, label %30

27:                                               ; preds = %24, %nas5gs_get_private_data.exit
  %28 = tail call ptr @tvb_new_subset_length(ptr noundef %0, i32 noundef %3, i32 noundef %4)
  %29 = tail call i32 @dissect_nas_5gs(ptr noundef %28, ptr noundef %2, ptr noundef %1, ptr noundef null)
  br label %33

30:                                               ; preds = %24
  %31 = load i32, ptr @ett_nas_5gs_enc, align 4
  %32 = tail call ptr @proto_tree_add_subtree(ptr noundef %1, ptr noundef %0, i32 noundef %3, i32 noundef %4, i32 noundef %31, ptr noundef null, ptr noundef nonnull @.str.1651)
  br label %33

33:                                               ; preds = %30, %27
  %34 = trunc i32 %4 to i16
  ret i16 %34
}